target datalayout = "e-m:e-p270:32:32-p271:32:32-p272:64:64-i64:64-i128:128-f80:128-n8:16:32:64-S128"
target triple = "x86_64-unknown-linux-gnu"

%"class.std::set.0" = type { %"class.std::_Rb_tree.1" }
%"class.std::_Rb_tree.1" = type { %"struct.std::_Rb_tree<QuantLib::Observer *, QuantLib::Observer *, std::_Identity<QuantLib::Observer *>, std::less<QuantLib::Observer *>>::_Rb_tree_impl" }
%"struct.std::_Rb_tree<QuantLib::Observer *, QuantLib::Observer *, std::_Identity<QuantLib::Observer *>, std::less<QuantLib::Observer *>>::_Rb_tree_impl" = type { [8 x i8], %"struct.std::_Rb_tree_header" }
%"struct.std::_Rb_tree_header" = type { %"struct.std::_Rb_tree_node_base", i64 }
%"struct.std::_Rb_tree_node_base" = type { i32, ptr, ptr, ptr }
%"class.QuantLib::Date" = type { i64 }
%"class.boost::detail::shared_count" = type { ptr }
%"class.std::set" = type { %"class.std::_Rb_tree" }
%"class.std::_Rb_tree" = type { %"struct.std::_Rb_tree<boost::shared_ptr<QuantLib::Observable>, boost::shared_ptr<QuantLib::Observable>, std::_Identity<boost::shared_ptr<QuantLib::Observable>>, std::less<boost::shared_ptr<QuantLib::Observable>>>::_Rb_tree_impl" }
%"struct.std::_Rb_tree<boost::shared_ptr<QuantLib::Observable>, boost::shared_ptr<QuantLib::Observable>, std::_Identity<boost::shared_ptr<QuantLib::Observable>>, std::less<boost::shared_ptr<QuantLib::Observable>>>::_Rb_tree_impl" = type { [8 x i8], %"struct.std::_Rb_tree_header" }
%"class.QuantLib::Observable" = type { ptr, %"class.std::set.0" }
%"class.QuantLib::Observer" = type { ptr, %"class.std::set" }
%"class.QuantLib::Basket" = type { %"class.QuantLib::LazyObject.base", %"class.std::vector.16", %"class.boost::shared_ptr.25", %"class.boost::shared_ptr.26", double, double, double, double, double, double, double, double, double, double, %"class.std::vector.27", %"class.std::vector.16", %"class.std::vector.32", %"class.std::vector.37", %"class.QuantLib::Date", %"class.boost::shared_ptr.42", %"class.QuantLib::Observable", %"class.QuantLib::Observer" }
%"class.QuantLib::LazyObject.base" = type <{ ptr, i8, i8, i8, i8 }>
%"class.boost::shared_ptr.25" = type { ptr, %"class.boost::detail::shared_count" }
%"class.boost::shared_ptr.26" = type { ptr, %"class.boost::detail::shared_count" }
%"class.std::vector.27" = type { %"struct.std::_Vector_base.28" }
%"struct.std::_Vector_base.28" = type { %"struct.std::_Vector_base<unsigned long, std::allocator<unsigned long>>::_Vector_impl" }
%"struct.std::_Vector_base<unsigned long, std::allocator<unsigned long>>::_Vector_impl" = type { %"struct.std::_Vector_base<unsigned long, std::allocator<unsigned long>>::_Vector_impl_data" }
%"struct.std::_Vector_base<unsigned long, std::allocator<unsigned long>>::_Vector_impl_data" = type { ptr, ptr, ptr }
%"class.std::vector.16" = type { %"struct.std::_Vector_base.17" }
%"struct.std::_Vector_base.17" = type { %"struct.std::_Vector_base<double, std::allocator<double>>::_Vector_impl" }
%"struct.std::_Vector_base<double, std::allocator<double>>::_Vector_impl" = type { %"struct.std::_Vector_base<double, std::allocator<double>>::_Vector_impl_data" }
%"struct.std::_Vector_base<double, std::allocator<double>>::_Vector_impl_data" = type { ptr, ptr, ptr }
%"class.std::vector.32" = type { %"struct.std::_Vector_base.33" }
%"struct.std::_Vector_base.33" = type { %"struct.std::_Vector_base<std::__cxx11::basic_string<char>, std::allocator<std::__cxx11::basic_string<char>>>::_Vector_impl" }
%"struct.std::_Vector_base<std::__cxx11::basic_string<char>, std::allocator<std::__cxx11::basic_string<char>>>::_Vector_impl" = type { %"struct.std::_Vector_base<std::__cxx11::basic_string<char>, std::allocator<std::__cxx11::basic_string<char>>>::_Vector_impl_data" }
%"struct.std::_Vector_base<std::__cxx11::basic_string<char>, std::allocator<std::__cxx11::basic_string<char>>>::_Vector_impl_data" = type { ptr, ptr, ptr }
%"class.std::vector.37" = type { %"struct.std::_Vector_base.38" }
%"struct.std::_Vector_base.38" = type { %"struct.std::_Vector_base<QuantLib::DefaultProbKey, std::allocator<QuantLib::DefaultProbKey>>::_Vector_impl" }
%"struct.std::_Vector_base<QuantLib::DefaultProbKey, std::allocator<QuantLib::DefaultProbKey>>::_Vector_impl" = type { %"struct.std::_Vector_base<QuantLib::DefaultProbKey, std::allocator<QuantLib::DefaultProbKey>>::_Vector_impl_data" }
%"struct.std::_Vector_base<QuantLib::DefaultProbKey, std::allocator<QuantLib::DefaultProbKey>>::_Vector_impl_data" = type { ptr, ptr, ptr }
%"class.boost::shared_ptr.42" = type { ptr, %"class.boost::detail::shared_count" }

; Function Attrs: mustprogress nounwind uwtable
define linkonce_odr noundef i64 @_ZNKSt6vectorImSaImEE4sizeEv(ptr noundef nonnull align 8 dereferenceable(24) %this) #1 comdat align 2 {
entry:
  %this.addr = alloca ptr, align 8
  store ptr %this, ptr %this.addr, align 8, !tbaa !3
  %this1 = load ptr, ptr %this.addr, align 8
  %_M_impl = getelementptr inbounds nuw %"struct.std::_Vector_base.28", ptr %this1, i32 0, i32 0
  %_M_finish = getelementptr inbounds nuw %"struct.std::_Vector_base<unsigned long, std::allocator<unsigned long>>::_Vector_impl_data", ptr %_M_impl, i32 0, i32 1
  %0 = load ptr, ptr %_M_finish, align 8, !tbaa !74
  %_M_impl2 = getelementptr inbounds nuw %"struct.std::_Vector_base.28", ptr %this1, i32 0, i32 0
  %_M_start = getelementptr inbounds nuw %"struct.std::_Vector_base<unsigned long, std::allocator<unsigned long>>::_Vector_impl_data", ptr %_M_impl2, i32 0, i32 0
  %1 = load ptr, ptr %_M_start, align 8, !tbaa !73
  %sub.ptr.lhs.cast = ptrtoint ptr %0 to i64
  %sub.ptr.rhs.cast = ptrtoint ptr %1 to i64
  %sub.ptr.sub = sub i64 %sub.ptr.lhs.cast, %sub.ptr.rhs.cast
  %sub.ptr.div = sdiv exact i64 %sub.ptr.sub, 8
  ret i64 %sub.ptr.div
}

; Function Attrs: mustprogress nounwind uwtable
define noundef i64 @_ZNK8QuantLib6Basket13remainingSizeEv(ptr noundef nonnull align 8 dereferenceable(272) %this) #1 align 2 {
entry:
  %this.addr = alloca ptr, align 8
  store ptr %this, ptr %this.addr, align 8, !tbaa !3
  %this1 = load ptr, ptr %this.addr, align 8
  %evalDateLiveList_ = getelementptr inbounds nuw %"class.QuantLib::Basket", ptr %this1, i32 0, i32 14
  %call = call noundef i64 @_ZNKSt6vectorImSaImEE4sizeEv(ptr noundef nonnull align 8 dereferenceable(24) %evalDateLiveList_) #14
  ret i64 %call
}